c__builtin__
set
p0
((lp1
S'/home/gonzales/enron/enron_experiment/beck-s/1/22739.txt'
p2
aS'/home/gonzales/enron/enron_experiment/beck-s/4/23563.txt'
p3
aS'/home/gonzales/enron/enron_experiment/beck-s/4/23559.txt'
p4
atp5
Rp6
.